target datalayout = "e-m:e-p270:32:32-p271:32:32-p272:64:64-i64:64-i128:128-f80:128-n8:16:32:64-S128"
target triple = "x86_64-pc-linux-gnu"

%"class.std::set" = type { %"class.std::_Rb_tree" }
%"class.std::_Rb_tree" = type { %"struct.std::_Rb_tree<std::__cxx11::basic_string<char>, std::__cxx11::basic_string<char>, std::_Identity<std::__cxx11::basic_string<char>>, duckdb_re2::Prefilter::LengthThenLex>::_Rb_tree_impl" }
%"struct.std::_Rb_tree<std::__cxx11::basic_string<char>, std::__cxx11::basic_string<char>, std::_Identity<std::__cxx11::basic_string<char>>, duckdb_re2::Prefilter::LengthThenLex>::_Rb_tree_impl" = type { [8 x i8], %"struct.std::_Rb_tree_header" }
%"struct.std::_Rb_tree_header" = type { %"struct.std::_Rb_tree_node_base", i64 }
%"struct.std::_Rb_tree_node_base" = type { i32, ptr, ptr, ptr }
%"class.duckdb_re2::Prefilter::Info" = type { %"class.std::set", i8, ptr }

@_ZN10duckdb_re29Prefilter4InfoC1Ev = hidden unnamed_addr alias void (ptr), ptr @_ZN10duckdb_re29Prefilter4InfoC2Ev
@_ZN10duckdb_re29Prefilter4InfoD1Ev = hidden unnamed_addr alias void (ptr), ptr @_ZN10duckdb_re29Prefilter4InfoD2Ev

; Function Attrs: mustprogress uwtable
define hidden noundef ptr @_ZN10duckdb_re29Prefilter4Info9TakeMatchEv(ptr noundef nonnull align 8 dereferenceable(64) %0) #0 align 2 {
  %2 = alloca ptr, align 8
  %3 = alloca ptr, align 8
  store ptr %0, ptr %2, align 8, !tbaa !45
  %4 = load ptr, ptr %2, align 8
  %5 = getelementptr inbounds nuw %"class.duckdb_re2::Prefilter::Info", ptr %4, i32 0, i32 1
  %6 = load i8, ptr %5, align 8, !tbaa !47, !range !59, !noundef !60
  %7 = trunc i8 %6 to i1
  br i1 %7, label %8, label %13

8:                                                ; preds = %1
  %9 = getelementptr inbounds nuw %"class.duckdb_re2::Prefilter::Info", ptr %4, i32 0, i32 0
  %10 = call noundef ptr @_ZN10duckdb_re29Prefilter9OrStringsEPSt3setINSt7__cxx1112basic_stringIcSt11char_traitsIcESaIcEEENS0_13LengthThenLexESaIS7_EE(ptr noundef %9)
  %11 = getelementptr inbounds nuw %"class.duckdb_re2::Prefilter::Info", ptr %4, i32 0, i32 2
  store ptr %10, ptr %11, align 8, !tbaa !58
  %12 = getelementptr inbounds nuw %"class.duckdb_re2::Prefilter::Info", ptr %4, i32 0, i32 1
  store i8 0, ptr %12, align 8, !tbaa !47
  br label %13

13:                                               ; preds = %8, %1
  call void @llvm.lifetime.start.p0(i64 8, ptr %3) #18
  %14 = getelementptr inbounds nuw %"class.duckdb_re2::Prefilter::Info", ptr %4, i32 0, i32 2
  %15 = load ptr, ptr %14, align 8, !tbaa !58
  store ptr %15, ptr %3, align 8, !tbaa !3
  %16 = getelementptr inbounds nuw %"class.duckdb_re2::Prefilter::Info", ptr %4, i32 0, i32 2
  store ptr null, ptr %16, align 8, !tbaa !58
  %17 = load ptr, ptr %3, align 8, !tbaa !3
  call void @llvm.lifetime.end.p0(i64 8, ptr %3) #18
  ret ptr %17
}

; Function Attrs: mustprogress uwtable
define hidden noundef ptr @_ZN10duckdb_re29Prefilter4Info4PlusEPS1_(ptr noundef %0) #0 align 2 personality ptr @__gxx_personality_v0 {
  %2 = alloca ptr, align 8
  %3 = alloca ptr, align 8
  %4 = alloca ptr, align 8
  %5 = alloca i32, align 4
  store ptr %0, ptr %2, align 8, !tbaa !45
  call void @llvm.lifetime.start.p0(i64 8, ptr %3) #18
  %6 = call noalias noundef nonnull ptr @_Znwm(i64 noundef 64) #19
  invoke void @_ZN10duckdb_re29Prefilter4InfoC1Ev(ptr noundef nonnull align 8 dereferenceable(64) %6)
          to label %7 unwind label %19

7:                                                ; preds = %1
  store ptr %6, ptr %3, align 8, !tbaa !45
  %8 = load ptr, ptr %2, align 8, !tbaa !45
  %9 = call noundef ptr @_ZN10duckdb_re29Prefilter4Info9TakeMatchEv(ptr noundef nonnull align 8 dereferenceable(64) %8)
  %10 = load ptr, ptr %3, align 8, !tbaa !45
  %11 = getelementptr inbounds nuw %"class.duckdb_re2::Prefilter::Info", ptr %10, i32 0, i32 2
  store ptr %9, ptr %11, align 8, !tbaa !58
  %12 = load ptr, ptr %3, align 8, !tbaa !45
  %13 = getelementptr inbounds nuw %"class.duckdb_re2::Prefilter::Info", ptr %12, i32 0, i32 1
  store i8 0, ptr %13, align 8, !tbaa !47
  %14 = load ptr, ptr %2, align 8, !tbaa !45
  %15 = icmp eq ptr %14, null
  br i1 %15, label %17, label %16

16:                                               ; preds = %7
  call void @_ZN10duckdb_re29Prefilter4InfoD1Ev(ptr noundef nonnull align 8 dereferenceable(64) %14) #18
  call void @_ZdlPv(ptr noundef %14) #21
  br label %17

17:                                               ; preds = %16, %7
  %18 = load ptr, ptr %3, align 8, !tbaa !45
  call void @llvm.lifetime.end.p0(i64 8, ptr %3) #18
  ret ptr %18

19:                                               ; preds = %1
  %20 = landingpad { ptr, i32 }
          cleanup
  %21 = extractvalue { ptr, i32 } %20, 0
  store ptr %21, ptr %4, align 8
  %22 = extractvalue { ptr, i32 } %20, 1
  store i32 %22, ptr %5, align 4
  call void @_ZdlPv(ptr noundef %6) #21
  call void @llvm.lifetime.end.p0(i64 8, ptr %3) #18
  br label %23

23:                                               ; preds = %19
  %24 = load ptr, ptr %4, align 8
  %25 = load i32, ptr %5, align 4
  %26 = insertvalue { ptr, i32 } poison, ptr %24, 0
  %27 = insertvalue { ptr, i32 } %26, i32 %25, 1
  resume { ptr, i32 } %27
}