; Function Attrs: mustprogress uwtable
define hidden noundef nonnull ptr @_ZN10duckdb_re29Prefilter4Info4PlusEPS1_(ptr noundef %0) local_unnamed_addr #0 align 2 personality ptr @__gxx_personality_v0 {
  %2 = tail call noalias noundef nonnull dereferenceable(64) ptr @_Znwm(i64 noundef 64) #20
  %3 = getelementptr inbounds nuw i8, ptr %2, i64 8
  store i32 0, ptr %3, align 8, !tbaa !40
  %4 = getelementptr inbounds nuw i8, ptr %2, i64 16
  store ptr null, ptr %4, align 8, !tbaa !41
  %5 = getelementptr inbounds nuw i8, ptr %2, i64 24
  store ptr %3, ptr %5, align 8, !tbaa !31
  %6 = getelementptr inbounds nuw i8, ptr %2, i64 32
  store ptr %3, ptr %6, align 8, !tbaa !42
  %7 = getelementptr inbounds nuw i8, ptr %2, i64 40
  store i64 0, ptr %7, align 8, !tbaa !36
  %8 = getelementptr inbounds nuw i8, ptr %2, i64 48
  store i8 0, ptr %8, align 8, !tbaa !43
  %9 = getelementptr inbounds nuw i8, ptr %2, i64 56
  store ptr null, ptr %9, align 8, !tbaa !51
  %10 = getelementptr inbounds nuw i8, ptr %0, i64 48
  %11 = load i8, ptr %10, align 8, !tbaa !43, !range !52, !noundef !53
  %12 = trunc nuw i8 %11 to i1
  br i1 %12, label %13, label %._crit_edge.i

._crit_edge.i:                                    ; preds = %1
  %.phi.trans.insert.i = getelementptr inbounds nuw i8, ptr %0, i64 56
  %.pre.i = load ptr, ptr %.phi.trans.insert.i, align 8, !tbaa !51
  br label %15

13:                                               ; preds = %1
  %14 = tail call noundef ptr @_ZN10duckdb_re29Prefilter9OrStringsEPSt3setINSt7__cxx1112basic_stringIcSt11char_traitsIcESaIcEEENS0_13LengthThenLexESaIS7_EE(ptr noundef nonnull align 8 dereferenceable(64) %0)
  store i8 0, ptr %10, align 8, !tbaa !43
  br label %15

15:                                               ; preds = %13, %._crit_edge.i
  %16 = phi ptr [ %.pre.i, %._crit_edge.i ], [ %14, %13 ]
  %17 = getelementptr inbounds nuw i8, ptr %0, i64 56
  store ptr null, ptr %17, align 8, !tbaa !51
  store ptr %16, ptr %9, align 8, !tbaa !51
  store i8 0, ptr %8, align 8, !tbaa !43
  %18 = getelementptr inbounds nuw i8, ptr %0, i64 16
  %19 = load ptr, ptr %18, align 8, !tbaa !41
  invoke void @_ZNSt8_Rb_treeINSt7__cxx1112basic_stringIcSt11char_traitsIcESaIcEEES5_St9_IdentityIS5_EN10duckdb_re29Prefilter13LengthThenLexESaIS5_EE8_M_eraseEPSt13_Rb_tree_nodeIS5_E(ptr noundef nonnull align 8 dereferenceable(64) %0, ptr noundef %19)
          to label %_ZN10duckdb_re29Prefilter4InfoD2Ev.exit unwind label %20

20:                                               ; preds = %15
  %21 = landingpad { ptr, i32 }
          catch ptr null
  %22 = extractvalue { ptr, i32 } %21, 0
  tail call void @__clang_call_terminate(ptr %22) #25
  unreachable

_ZN10duckdb_re29Prefilter4InfoD2Ev.exit:          ; preds = %15
  tail call void @_ZdlPv(ptr noundef nonnull %0) #22
  ret ptr %2
}